; Function Attrs: mustprogress nofree norecurse nosync nounwind willreturn memory(read, inaccessiblemem: none) uwtable
define dso_local noundef ptr @_ZNK23btDiscreteDynamicsWorld13getConstraintEi(ptr nocapture noundef nonnull readonly align 8 dereferenceable(508) %this, i32 noundef %index) unnamed_addr #11 align 2 {
entry:
  %m_data.i = getelementptr inbounds i8, ptr %this, i64 352
  %0 = load ptr, ptr %m_data.i, align 8
  %idxprom.i = sext i32 %index to i64
  %arrayidx.i = getelementptr inbounds ptr, ptr %0, i64 %idxprom.i
  %1 = load ptr, ptr %arrayidx.i, align 8
  ret ptr %1
}